target datalayout = "e-m:e-p270:32:32-p271:32:32-p272:64:64-i64:64-i128:128-f80:128-n8:16:32:64-S128"
target triple = "x86_64-pc-linux-gnu"

%struct.Mpm_Dsd_t_ = type { i32, i32, i32, i64, ptr }
%struct.Mpm_Man_t_ = type { ptr, ptr, i32, i32, i32, ptr, i32, i32, i64, i64, ptr, i32, [33 x ptr], [33 x %struct.Mpm_Uni_t_], %struct.Vec_Ptr_t_, ptr, ptr, [3 x i32], [3 x [33 x ptr]], [3 x [33 x i64]], ptr, i32, i32, [64 x i64], [64 x i64], [64 x i64], [64 x i64], ptr, ptr, ptr, ptr, [720 x [6 x i8]], ptr, [3 x i32], [3 x i32], ptr, %struct.Vec_Int_t_, %struct.Vec_Int_t_, %struct.Vec_Int_t_, %struct.Vec_Int_t_, %struct.Vec_Int_t_, %struct.Vec_Int_t_, %struct.Vec_Int_t_, %struct.Vec_Int_t_, %struct.Vec_Int_t_, [600 x i32], i32, i32, i32, i32, i32, i64, i64, i64, i64, i64, i64, i64 }
%struct.Mpm_Uni_t_ = type { i32, i32, i32, i32, i64, i32, %struct.Mpm_Cut_t_, [11 x i32] }
%struct.Mpm_Cut_t_ = type { i32, i32, [1 x i32] }
%struct.Vec_Ptr_t_ = type { i32, i32, ptr }
%struct.Vec_Int_t_ = type { i32, i32, ptr }

@s_Truths6 = internal global [6 x i64] [i64 -6148914691236517206, i64 -3689348814741910324, i64 -1085102592571150096, i64 -71777214294589696, i64 -281470681808896, i64 -4294967296], align 16

; Function Attrs: inlinehint nounwind uwtable
define internal i64 @Abc_Tt6Flip(i64 noundef %0, i32 noundef %1) #2 {
  %3 = alloca i64, align 8
  %4 = alloca i32, align 4
  store i64 %0, ptr %3, align 8, !tbaa !22
  store i32 %1, ptr %4, align 4, !tbaa !3
  %5 = load i64, ptr %3, align 8, !tbaa !22
  %6 = load i32, ptr %4, align 4, !tbaa !3
  %7 = shl i32 1, %6
  %8 = zext i32 %7 to i64
  %9 = shl i64 %5, %8
  %10 = load i32, ptr %4, align 4, !tbaa !3
  %11 = sext i32 %10 to i64
  %12 = getelementptr inbounds [6 x i64], ptr @s_Truths6, i64 0, i64 %11
  %13 = load i64, ptr %12, align 8, !tbaa !22
  %14 = and i64 %9, %13
  %15 = load i64, ptr %3, align 8, !tbaa !22
  %16 = load i32, ptr %4, align 4, !tbaa !3
  %17 = sext i32 %16 to i64
  %18 = getelementptr inbounds [6 x i64], ptr @s_Truths6, i64 0, i64 %17
  %19 = load i64, ptr %18, align 8, !tbaa !22
  %20 = and i64 %15, %19
  %21 = load i32, ptr %4, align 4, !tbaa !3
  %22 = shl i32 1, %21
  %23 = zext i32 %22 to i64
  %24 = lshr i64 %20, %23
  %25 = or i64 %14, %24
  store i64 %25, ptr %3, align 8, !tbaa !22
  ret i64 %25
}

; Function Attrs: inlinehint nounwind uwtable
define internal i32 @Abc_LitIsCompl(i32 noundef %0) #2 {
  %2 = alloca i32, align 4
  store i32 %0, ptr %2, align 4, !tbaa !3
  %3 = load i32, ptr %2, align 4, !tbaa !3
  %4 = and i32 %3, 1
  ret i32 %4
}

; Function Attrs: nounwind uwtable
define i64 @Mpm_CutTruthFromDsd(ptr noundef %0, ptr noundef %1, i32 noundef %2) #0 {
  %4 = alloca ptr, align 8
  %5 = alloca ptr, align 8
  %6 = alloca i32, align 4
  %7 = alloca i32, align 4
  %8 = alloca i64, align 8
  store ptr %0, ptr %4, align 8, !tbaa !23
  store ptr %1, ptr %5, align 8, !tbaa !75
  store i32 %2, ptr %6, align 4, !tbaa !3
  call void @llvm.lifetime.start.p0(i64 4, ptr %7) #12
  call void @llvm.lifetime.start.p0(i64 8, ptr %8) #12
  %9 = load ptr, ptr %4, align 8, !tbaa !23
  %10 = getelementptr inbounds nuw %struct.Mpm_Man_t_, ptr %9, i32 0, i32 27
  %11 = load ptr, ptr %10, align 8, !tbaa !42
  %12 = load i32, ptr %6, align 4, !tbaa !3
  %13 = sext i32 %12 to i64
  %14 = getelementptr inbounds %struct.Mpm_Dsd_t_, ptr %11, i64 %13
  %15 = getelementptr inbounds nuw %struct.Mpm_Dsd_t_, ptr %14, i32 0, i32 3
  %16 = load i64, ptr %15, align 8, !tbaa !14
  store i64 %16, ptr %8, align 8, !tbaa !22
  store i32 0, ptr %7, align 4, !tbaa !3
  br label %17

17:                                               ; preds = %38, %3
  %18 = load i32, ptr %7, align 4, !tbaa !3
  %19 = load ptr, ptr %5, align 8, !tbaa !75
  %20 = getelementptr inbounds nuw %struct.Mpm_Cut_t_, ptr %19, i32 0, i32 1
  %21 = load i32, ptr %20, align 4
  %22 = lshr i32 %21, 27
  %23 = icmp slt i32 %18, %22
  br i1 %23, label %24, label %41

24:                                               ; preds = %17
  %25 = load ptr, ptr %5, align 8, !tbaa !75
  %26 = getelementptr inbounds nuw %struct.Mpm_Cut_t_, ptr %25, i32 0, i32 2
  %27 = load i32, ptr %7, align 4, !tbaa !3
  %28 = sext i32 %27 to i64
  %29 = getelementptr inbounds [1 x i32], ptr %26, i64 0, i64 %28
  %30 = load i32, ptr %29, align 4, !tbaa !3
  %31 = call i32 @Abc_LitIsCompl(i32 noundef %30)
  %32 = icmp ne i32 %31, 0
  br i1 %32, label %33, label %37

33:                                               ; preds = %24
  %34 = load i64, ptr %8, align 8, !tbaa !22
  %35 = load i32, ptr %7, align 4, !tbaa !3
  %36 = call i64 @Abc_Tt6Flip(i64 noundef %34, i32 noundef %35)
  store i64 %36, ptr %8, align 8, !tbaa !22
  br label %37

37:                                               ; preds = %33, %24
  br label %38

38:                                               ; preds = %37
  %39 = load i32, ptr %7, align 4, !tbaa !3
  %40 = add nsw i32 %39, 1
  store i32 %40, ptr %7, align 4, !tbaa !3
  br label %17, !llvm.loop !77

41:                                               ; preds = %17
  %42 = load i64, ptr %8, align 8, !tbaa !22
  call void @llvm.lifetime.end.p0(i64 8, ptr %8) #12
  call void @llvm.lifetime.end.p0(i64 4, ptr %7) #12
  ret i64 %42
}