; Function Attrs: nofree norecurse nosync nounwind memory(read, inaccessiblemem: none) uwtable
define i64 @Mpm_CutTruthFromDsd(ptr noundef readonly captures(none) %0, ptr noundef readonly captures(none) %1, i32 noundef %2) local_unnamed_addr #7 {
  %4 = getelementptr inbounds nuw i8, ptr %0, i64 6944
  %5 = load ptr, ptr %4, align 8, !tbaa !39
  %6 = sext i32 %2 to i64
  %7 = getelementptr inbounds %struct.Mpm_Dsd_t_, ptr %5, i64 %6, i32 3
  %8 = load i64, ptr %7, align 8, !tbaa !16
  %9 = getelementptr inbounds nuw i8, ptr %1, i64 4
  %10 = load i32, ptr %9, align 4
  %.not12 = icmp ult i32 %10, 134217728
  br i1 %.not12, label %._crit_edge, label %.lr.ph

.lr.ph:                                           ; preds = %3
  %11 = lshr i32 %10, 27
  %12 = getelementptr inbounds nuw i8, ptr %1, i64 8
  %wide.trip.count = zext nneg i32 %11 to i64
  br label %13

13:                                               ; preds = %.lr.ph, %28
  %indvars.iv = phi i64 [ 0, %.lr.ph ], [ %indvars.iv.next, %28 ]
  %.011 = phi i64 [ %8, %.lr.ph ], [ %.1, %28 ]
  %14 = getelementptr inbounds nuw [1 x i32], ptr %12, i64 0, i64 %indvars.iv
  %15 = load i32, ptr %14, align 4, !tbaa !20
  %16 = and i32 %15, 1
  %.not = icmp eq i32 %16, 0
  br i1 %.not, label %28, label %17

17:                                               ; preds = %13
  %18 = trunc nuw nsw i64 %indvars.iv to i32
  %19 = shl nuw nsw i32 1, %18
  %20 = zext nneg i32 %19 to i64
  %21 = shl i64 %.011, %20
  %22 = getelementptr inbounds nuw [6 x i64], ptr @s_Truths6, i64 0, i64 %indvars.iv
  %23 = load i64, ptr %22, align 8, !tbaa !17
  %24 = and i64 %23, %21
  %25 = and i64 %23, %.011
  %26 = lshr i64 %25, %20
  %27 = or i64 %26, %24
  br label %28

28:                                               ; preds = %13, %17
  %.1 = phi i64 [ %27, %17 ], [ %.011, %13 ]
  %indvars.iv.next = add nuw nsw i64 %indvars.iv, 1
  %exitcond.not = icmp eq i64 %indvars.iv.next, %wide.trip.count
  br i1 %exitcond.not, label %._crit_edge, label %13, !llvm.loop !80

._crit_edge:                                      ; preds = %28, %3
  %.0.lcssa = phi i64 [ %8, %3 ], [ %.1, %28 ]
  ret i64 %.0.lcssa
}